target datalayout = "e-m:e-p270:32:32-p271:32:32-p272:64:64-i64:64-i128:128-f80:128-n8:16:32:64-S128"
target triple = "x86_64-pc-linux-gnu"

%"class.cmsys::SystemToolsManager" = type { i8 }
%"class.std::__cxx11::basic_string" = type { %"struct.std::__cxx11::basic_string<char>::_Alloc_hider", i64, %union.anon }
%"struct.std::__cxx11::basic_string<char>::_Alloc_hider" = type { ptr }
%union.anon = type { i64, [8 x i8] }
%class.cmNinjaLinkLineDeviceComputer = type { %class.cmLinkLineDeviceComputer.base, ptr }
%class.cmLinkLineDeviceComputer.base = type { %class.cmLinkLineComputer.base }
%class.cmLinkLineComputer.base = type <{ ptr, %class.cmStateDirectory, ptr, i8, i8, i8, i8 }>
%class.cmStateDirectory = type { %"class.cmLinkedTree<cmStateDetail::BuildsystemDirectoryStateType>::iterator", %class.cmStateSnapshot }
%"class.cmLinkedTree<cmStateDetail::BuildsystemDirectoryStateType>::iterator" = type { ptr, i64 }
%class.cmStateSnapshot = type { ptr, %"class.cmLinkedTree<cmStateDetail::SnapshotDataType>::iterator" }
%"class.cmLinkedTree<cmStateDetail::SnapshotDataType>::iterator" = type { ptr, i64 }

$_ZN29cmNinjaLinkLineDeviceComputerD2Ev = comdat any

$_ZN29cmNinjaLinkLineDeviceComputerD0Ev = comdat any

@_ZN5cmsysL26SystemToolsManagerInstanceE = internal global %"class.cmsys::SystemToolsManager" zeroinitializer, align 1
@__dso_handle = external hidden global i8
@_ZL18cmPropertySentinalB5cxx11 = internal global %"class.std::__cxx11::basic_string" zeroinitializer, align 8
@_ZTV29cmNinjaLinkLineDeviceComputer = dso_local unnamed_addr constant { [7 x ptr] } { [7 x ptr] [ptr null, ptr @_ZTI29cmNinjaLinkLineDeviceComputer, ptr @_ZN29cmNinjaLinkLineDeviceComputerD2Ev, ptr @_ZN29cmNinjaLinkLineDeviceComputerD0Ev, ptr @_ZNK29cmNinjaLinkLineDeviceComputer22ConvertToLinkReferenceERKNSt7__cxx1112basic_stringIcSt11char_traitsIcESaIcEEE, ptr @_ZN24cmLinkLineDeviceComputer20ComputeLinkLibrariesER24cmComputeLinkInformationRKNSt7__cxx1112basic_stringIcSt11char_traitsIcESaIcEEERSt6vectorI2BTIS7_ESaISC_EE, ptr @_ZN24cmLinkLineDeviceComputer17GetLinkerLanguageEP17cmGeneratorTargetRKNSt7__cxx1112basic_stringIcSt11char_traitsIcESaIcEEE] }, align 8
@_ZTVN10__cxxabiv120__si_class_type_infoE = external global [0 x ptr]
@_ZTS29cmNinjaLinkLineDeviceComputer = dso_local constant [32 x i8] c"29cmNinjaLinkLineDeviceComputer\00", align 1
@_ZTI24cmLinkLineDeviceComputer = external constant ptr
@_ZTI29cmNinjaLinkLineDeviceComputer = dso_local constant { ptr, ptr, ptr } { ptr getelementptr inbounds (ptr, ptr @_ZTVN10__cxxabiv120__si_class_type_infoE, i64 2), ptr @_ZTS29cmNinjaLinkLineDeviceComputer, ptr @_ZTI24cmLinkLineDeviceComputer }, align 8
@llvm.global_ctors = appending global [1 x { i32, ptr, ptr }] [{ i32, ptr, ptr } { i32 65535, ptr @_GLOBAL__sub_I_cmNinjaLinkLineDeviceComputer.cxx, ptr null }]

@_ZN29cmNinjaLinkLineDeviceComputerC1EP17cmOutputConverterRK16cmStateDirectoryPK22cmGlobalNinjaGenerator = dso_local unnamed_addr alias void (ptr, ptr, ptr, ptr), ptr @_ZN29cmNinjaLinkLineDeviceComputerC2EP17cmOutputConverterRK16cmStateDirectoryPK22cmGlobalNinjaGenerator

; Function Attrs: uwtable
define internal void @__cxx_global_var_init() #0 section ".text.startup" {
  call void @_ZN5cmsys18SystemToolsManagerC1Ev(ptr noundef nonnull align 1 dereferenceable(1) @_ZN5cmsysL26SystemToolsManagerInstanceE)
  %1 = call i32 @__cxa_atexit(ptr @_ZN5cmsys18SystemToolsManagerD1Ev, ptr @_ZN5cmsysL26SystemToolsManagerInstanceE, ptr @__dso_handle) #3
  ret void
}

declare void @_ZN5cmsys18SystemToolsManagerC1Ev(ptr noundef nonnull align 1 dereferenceable(1)) unnamed_addr #1

; Function Attrs: nounwind
declare void @_ZN5cmsys18SystemToolsManagerD1Ev(ptr noundef nonnull align 1 dereferenceable(1)) unnamed_addr #2

; Function Attrs: nounwind
declare i32 @__cxa_atexit(ptr, ptr, ptr) #3

; Function Attrs: uwtable
define internal void @__cxx_global_var_init.1() #0 section ".text.startup" {
  call void @_ZNSt7__cxx1112basic_stringIcSt11char_traitsIcESaIcEEC1Ev(ptr noundef nonnull align 8 dereferenceable(32) @_ZL18cmPropertySentinalB5cxx11) #3
  %1 = call i32 @__cxa_atexit(ptr @_ZNSt7__cxx1112basic_stringIcSt11char_traitsIcESaIcEED1Ev, ptr @_ZL18cmPropertySentinalB5cxx11, ptr @__dso_handle) #3
  ret void
}

; Function Attrs: nounwind
declare void @_ZNSt7__cxx1112basic_stringIcSt11char_traitsIcESaIcEEC1Ev(ptr noundef nonnull align 8 dereferenceable(32)) unnamed_addr #2

; Function Attrs: nounwind
declare void @_ZNSt7__cxx1112basic_stringIcSt11char_traitsIcESaIcEED1Ev(ptr noundef nonnull align 8 dereferenceable(32)) unnamed_addr #2

; Function Attrs: mustprogress uwtable
define dso_local void @_ZN29cmNinjaLinkLineDeviceComputerC2EP17cmOutputConverterRK16cmStateDirectoryPK22cmGlobalNinjaGenerator(ptr noundef nonnull align 8 dereferenceable(72) %0, ptr noundef %1, ptr noundef nonnull align 8 dereferenceable(40) %2, ptr noundef %3) unnamed_addr #4 align 2 {
  %5 = alloca ptr, align 8
  %6 = alloca ptr, align 8
  %7 = alloca ptr, align 8
  %8 = alloca ptr, align 8
  store ptr %0, ptr %5, align 8
  store ptr %1, ptr %6, align 8
  store ptr %2, ptr %7, align 8
  store ptr %3, ptr %8, align 8
  %9 = load ptr, ptr %5, align 8
  %10 = load ptr, ptr %6, align 8
  %11 = load ptr, ptr %7, align 8
  call void @_ZN24cmLinkLineDeviceComputerC2EP17cmOutputConverterRK16cmStateDirectory(ptr noundef nonnull align 8 dereferenceable(60) %9, ptr noundef %10, ptr noundef nonnull align 8 dereferenceable(40) %11)
  store ptr getelementptr inbounds ({ [7 x ptr] }, ptr @_ZTV29cmNinjaLinkLineDeviceComputer, i32 0, i32 0, i32 2), ptr %9, align 8
  %12 = getelementptr inbounds %class.cmNinjaLinkLineDeviceComputer, ptr %9, i32 0, i32 1
  %13 = load ptr, ptr %8, align 8
  store ptr %13, ptr %12, align 8
  ret void
}

declare void @_ZN24cmLinkLineDeviceComputerC2EP17cmOutputConverterRK16cmStateDirectory(ptr noundef nonnull align 8 dereferenceable(60), ptr noundef, ptr noundef nonnull align 8 dereferenceable(40)) unnamed_addr #1

; Function Attrs: mustprogress uwtable
define dso_local void @_ZNK29cmNinjaLinkLineDeviceComputer22ConvertToLinkReferenceERKNSt7__cxx1112basic_stringIcSt11char_traitsIcESaIcEEE(ptr dead_on_unwind noalias writable sret(%"class.std::__cxx11::basic_string") align 8 %0, ptr noundef nonnull align 8 dereferenceable(72) %1, ptr noundef nonnull align 8 dereferenceable(32) %2) unnamed_addr #4 align 2 {
  %4 = alloca ptr, align 8
  %5 = alloca ptr, align 8
  %6 = alloca ptr, align 8
  store ptr %0, ptr %4, align 8
  store ptr %1, ptr %5, align 8
  store ptr %2, ptr %6, align 8
  %7 = load ptr, ptr %5, align 8
  %8 = getelementptr inbounds %class.cmNinjaLinkLineDeviceComputer, ptr %7, i32 0, i32 1
  %9 = load ptr, ptr %8, align 8
  %10 = load ptr, ptr %6, align 8
  %11 = call noundef nonnull align 8 dereferenceable(32) ptr @_ZNK22cmGlobalNinjaGenerator18ConvertToNinjaPathERKNSt7__cxx1112basic_stringIcSt11char_traitsIcESaIcEEE(ptr noundef nonnull align 8 dereferenceable(2808) %9, ptr noundef nonnull align 8 dereferenceable(32) %10)
  call void @_ZNSt7__cxx1112basic_stringIcSt11char_traitsIcESaIcEEC1ERKS4_(ptr noundef nonnull align 8 dereferenceable(32) %0, ptr noundef nonnull align 8 dereferenceable(32) %11)
  ret void
}

declare noundef nonnull align 8 dereferenceable(32) ptr @_ZNK22cmGlobalNinjaGenerator18ConvertToNinjaPathERKNSt7__cxx1112basic_stringIcSt11char_traitsIcESaIcEEE(ptr noundef nonnull align 8 dereferenceable(2808), ptr noundef nonnull align 8 dereferenceable(32)) #1

declare void @_ZNSt7__cxx1112basic_stringIcSt11char_traitsIcESaIcEEC1ERKS4_(ptr noundef nonnull align 8 dereferenceable(32), ptr noundef nonnull align 8 dereferenceable(32)) unnamed_addr #1

; Function Attrs: mustprogress nounwind uwtable
define linkonce_odr dso_local void @_ZN29cmNinjaLinkLineDeviceComputerD2Ev(ptr noundef nonnull align 8 dereferenceable(72) %0) unnamed_addr #5 comdat align 2 {
  %2 = alloca ptr, align 8
  store ptr %0, ptr %2, align 8
  %3 = load ptr, ptr %2, align 8
  call void @_ZN24cmLinkLineDeviceComputerD2Ev(ptr noundef nonnull align 8 dereferenceable(60) %3) #3
  ret void
}

; Function Attrs: mustprogress nounwind uwtable
define linkonce_odr dso_local void @_ZN29cmNinjaLinkLineDeviceComputerD0Ev(ptr noundef nonnull align 8 dereferenceable(72) %0) unnamed_addr #5 comdat align 2 {
  %2 = alloca ptr, align 8
  store ptr %0, ptr %2, align 8
  %3 = load ptr, ptr %2, align 8
  call void @_ZN29cmNinjaLinkLineDeviceComputerD2Ev(ptr noundef nonnull align 8 dereferenceable(72) %3) #3
  call void @_ZdlPv(ptr noundef %3) #7
  ret void
}

declare void @_ZN24cmLinkLineDeviceComputer20ComputeLinkLibrariesER24cmComputeLinkInformationRKNSt7__cxx1112basic_stringIcSt11char_traitsIcESaIcEEERSt6vectorI2BTIS7_ESaISC_EE(ptr noundef nonnull align 8 dereferenceable(60), ptr noundef nonnull align 8 dereferenceable(2960), ptr noundef nonnull align 8 dereferenceable(32), ptr noundef nonnull align 8 dereferenceable(24)) unnamed_addr #1

declare void @_ZN24cmLinkLineDeviceComputer17GetLinkerLanguageEP17cmGeneratorTargetRKNSt7__cxx1112basic_stringIcSt11char_traitsIcESaIcEEE(ptr dead_on_unwind writable sret(%"class.std::__cxx11::basic_string") align 8, ptr noundef nonnull align 8 dereferenceable(60), ptr noundef, ptr noundef nonnull align 8 dereferenceable(32)) unnamed_addr #1

; Function Attrs: nounwind
declare void @_ZN24cmLinkLineDeviceComputerD2Ev(ptr noundef nonnull align 8 dereferenceable(60)) unnamed_addr #2

; Function Attrs: nobuiltin nounwind
declare void @_ZdlPv(ptr noundef) #6

; Function Attrs: uwtable
define internal void @_GLOBAL__sub_I_cmNinjaLinkLineDeviceComputer.cxx() #0 section ".text.startup" {
  call void @__cxx_global_var_init()
  call void @__cxx_global_var_init.1()
  ret void
}


!llvm.module.flags = !{!0, !1, !2, !3, !4}

!0 = !{i32 1, !"wchar_size", i32 4}
!1 = !{i32 8, !"PIC Level", i32 2}
!2 = !{i32 7, !"PIE Level", i32 2}
!3 = !{i32 7, !"uwtable", i32 2}
!4 = !{i32 7, !"frame-pointer", i32 2}
